target datalayout = "e-m:e-p270:32:32-p271:32:32-p272:64:64-i64:64-i128:128-f80:128-n8:16:32:64-S128"
target triple = "x86_64-pc-linux-gnu"

@NLocBuffer = dso_local global i32 0, align 4
@.str.4 = private unnamed_addr constant [95 x i8] c"\22temp_buffers\22 cannot be changed after any temporary tables have been accessed in the session.\00", align 1
@GUC_check_errdetail_string = external global ptr, align 8

; Function Attrs: nounwind uwtable
define dso_local zeroext i1 @check_temp_buffers(ptr noundef %0, ptr noundef %1, i32 noundef %2) #0 {
  %4 = alloca i1, align 1
  %5 = alloca ptr, align 8
  %6 = alloca ptr, align 8
  %7 = alloca i32, align 4
  store ptr %0, ptr %5, align 8
  store ptr %1, ptr %6, align 8
  store i32 %2, ptr %7, align 4
  %8 = load i32, ptr %7, align 4
  %9 = icmp ne i32 %8, 12
  br i1 %9, label %10, label %22

10:                                               ; preds = %3
  %11 = load i32, ptr @NLocBuffer, align 4
  %12 = icmp ne i32 %11, 0
  br i1 %12, label %13, label %22

13:                                               ; preds = %10
  %14 = load i32, ptr @NLocBuffer, align 4
  %15 = load ptr, ptr %5, align 8
  %16 = load i32, ptr %15, align 4
  %17 = icmp ne i32 %14, %16
  br i1 %17, label %18, label %22

18:                                               ; preds = %13
  %19 = call ptr @__errno_location() #12
  %20 = load i32, ptr %19, align 4
  call void @pre_format_elog_string(i32 noundef %20, ptr noundef null)
  %21 = call ptr (ptr, ...) @format_elog_string(ptr noundef @.str.4)
  store ptr %21, ptr @GUC_check_errdetail_string, align 8
  store i1 false, ptr %4, align 1
  br label %23

22:                                               ; preds = %13, %10, %3
  store i1 true, ptr %4, align 1
  br label %23

23:                                               ; preds = %22, %18
  %24 = load i1, ptr %4, align 1
  ret i1 %24
}