; Function Attrs: nounwind uwtable
define dso_local noundef zeroext i1 @check_temp_buffers(ptr noundef readonly captures(none) %0, ptr noundef readnone captures(none) %1, i32 noundef %2) local_unnamed_addr #0 {
  %4 = icmp ne i32 %2, 12
  %5 = load i32, ptr @NLocBuffer, align 4
  %6 = icmp ne i32 %5, 0
  %or.cond = select i1 %4, i1 %6, i1 false
  br i1 %or.cond, label %7, label %13

7:                                                ; preds = %3
  %8 = load i32, ptr %0, align 4
  %.not = icmp eq i32 %5, %8
  br i1 %.not, label %13, label %9

9:                                                ; preds = %7
  %10 = tail call ptr @__errno_location() #17
  %11 = load i32, ptr %10, align 4
  tail call void @pre_format_elog_string(i32 noundef %11, ptr noundef null) #14
  %12 = tail call ptr (ptr, ...) @format_elog_string(ptr noundef nonnull @.str.4) #14
  store ptr %12, ptr @GUC_check_errdetail_string, align 8
  br label %13

13:                                               ; preds = %3, %7, %9
  %.0 = phi i1 [ false, %9 ], [ true, %7 ], [ true, %3 ]
  ret i1 %.0
}